; Function Attrs: nounwind uwtable
define internal i32 @doing_getsock(ptr noundef %0, ptr noundef %1) #0 {
  %3 = getelementptr inbounds nuw i8, ptr %0, i64 24
  %4 = load ptr, ptr %3, align 8, !tbaa !109
  %.not = icmp eq ptr %4, null
  br i1 %.not, label %16, label %5

5:                                                ; preds = %2
  %6 = getelementptr inbounds nuw i8, ptr %4, i64 960
  %7 = load ptr, ptr %6, align 8, !tbaa !124
  %8 = getelementptr inbounds nuw i8, ptr %7, i64 72
  %9 = load ptr, ptr %8, align 8, !tbaa !250
  %.not13 = icmp eq ptr %9, null
  br i1 %.not13, label %12, label %10

10:                                               ; preds = %5
  %11 = tail call i32 %9(ptr noundef nonnull %0, ptr noundef nonnull %4, ptr noundef %1) #19
  br label %16

12:                                               ; preds = %5
  %13 = getelementptr inbounds nuw i8, ptr %4, i64 992
  %14 = load i32, ptr %13, align 8, !tbaa !197
  %.not14 = icmp eq i32 %14, -1
  br i1 %.not14, label %16, label %15

15:                                               ; preds = %12
  store i32 %14, ptr %1, align 4, !tbaa !28
  br label %16

16:                                               ; preds = %12, %2, %15, %10
  %.0 = phi i32 [ %11, %10 ], [ 65536, %15 ], [ 0, %2 ], [ 0, %12 ]
  ret i32 %.0
}